; Function Attrs: mustprogress uwtable
define void @_ZN6icu_756Locale16addLikelySubtagsER10UErrorCode(ptr noundef nonnull align 8 dereferenceable(217) %this, ptr noundef nonnull align 4 dereferenceable(4) %status) local_unnamed_addr #1 align 2 personality ptr @__gxx_personality_v0 {
entry:
  %maximizedLocaleID = alloca %"class.icu_75::CharString", align 8
  %sink = alloca %"class.icu_75::CharStringByteSink", align 8
  %0 = load i32, ptr %status, align 4
  %cmp.i = icmp slt i32 %0, 1
  br i1 %cmp.i, label %if.end, label %cleanup.cont

if.end:                                           ; preds = %entry
  call void @_ZN6icu_7515MaybeStackArrayIcLi40EEC1Ev(ptr noundef nonnull align 8 dereferenceable(53) %maximizedLocaleID)
  %len.i = getelementptr inbounds i8, ptr %maximizedLocaleID, i64 56
  store i32 0, ptr %len.i, align 8
  %1 = load ptr, ptr %maximizedLocaleID, align 8
  store i8 0, ptr %1, align 1
  invoke void @_ZN6icu_7518CharStringByteSinkC1EPNS_10CharStringE(ptr noundef nonnull align 8 dereferenceable(16) %sink, ptr noundef nonnull %maximizedLocaleID)
          to label %invoke.cont unwind label %lpad

invoke.cont:                                      ; preds = %if.end
  %fullName = getelementptr inbounds i8, ptr %this, i64 40
  %2 = load ptr, ptr %fullName, align 8
  invoke void @ulocimp_addLikelySubtags_75(ptr noundef %2, ptr noundef nonnull align 8 dereferenceable(8) %sink, ptr noundef nonnull %status)
          to label %invoke.cont3 unwind label %lpad2

invoke.cont3:                                     ; preds = %invoke.cont
  call void @_ZN6icu_7518CharStringByteSinkD1Ev(ptr noundef nonnull align 8 dereferenceable(16) %sink) #20
  %3 = load i32, ptr %status, align 4
  %cmp.i5 = icmp slt i32 %3, 1
  br i1 %cmp.i5, label %if.end8, label %cleanup

lpad:                                             ; preds = %if.end8, %if.end
  %4 = landingpad { ptr, i32 }
          cleanup
  br label %ehcleanup

lpad2:                                            ; preds = %invoke.cont
  %5 = landingpad { ptr, i32 }
          cleanup
  call void @_ZN6icu_7518CharStringByteSinkD1Ev(ptr noundef nonnull align 8 dereferenceable(16) %sink) #20
  br label %ehcleanup

if.end8:                                          ; preds = %invoke.cont3
  %6 = load ptr, ptr %maximizedLocaleID, align 8
  %call12 = invoke noundef nonnull align 8 dereferenceable(217) ptr @_ZN6icu_756Locale4initEPKca(ptr noundef nonnull align 8 dereferenceable(217) %this, ptr noundef %6, i8 noundef signext 0)
          to label %invoke.cont11 unwind label %lpad

invoke.cont11:                                    ; preds = %if.end8
  %fIsBogus.i = getelementptr inbounds i8, ptr %this, i64 216
  %7 = load i8, ptr %fIsBogus.i, align 8
  %tobool15.not = icmp eq i8 %7, 0
  br i1 %tobool15.not, label %cleanup, label %if.then16

if.then16:                                        ; preds = %invoke.cont11
  store i32 1, ptr %status, align 4
  br label %cleanup

cleanup:                                          ; preds = %invoke.cont11, %if.then16, %invoke.cont3
  call void @_ZN6icu_7515MaybeStackArrayIcLi40EED1Ev(ptr noundef nonnull align 8 dereferenceable(53) %maximizedLocaleID) #20
  br label %cleanup.cont

cleanup.cont:                                     ; preds = %entry, %cleanup
  ret void

ehcleanup:                                        ; preds = %lpad2, %lpad
  %.pn = phi { ptr, i32 } [ %4, %lpad ], [ %5, %lpad2 ]
  call void @_ZN6icu_7515MaybeStackArrayIcLi40EED1Ev(ptr noundef nonnull align 8 dereferenceable(53) %maximizedLocaleID) #20
  resume { ptr, i32 } %.pn
}